#include <math.h>
#include <stdio.h>
#include <stdlib.h>
#include <string.h>

int main(){
	int n;
	scanf("%d",&n);
	if(6==n-1){
		printf("1\n");
	}
	if(2==n-2){
		printf("2\n");
	}	
	if(2==n-2){
		printf("3\n");
	}	
	if(5==n+4){
		printf("4\n");
	}	
	if(0==n-6){
		printf("5\n");
	}
	if(3==n){
		printf("6\n");
	}	
	if(5==n+4){
		printf("7\n");
	}	
	if(1==n-4){
		printf("8\n");
	}
	if(4==n+2){
		printf("9\n");
	}
	if(6==n-1){
		printf("10\n");
	}
	if(2==n-2){
		printf("11\n");
	}
	if(4==n+2){
		printf("12\n");
	}
	


	return 0;
}